target datalayout = "e-m:e-p270:32:32-p271:32:32-p272:64:64-i64:64-i128:128-f80:128-n8:16:32:64-S128"
target triple = "x86_64-pc-linux-gnu"

%"class.boost::chrono::duration" = type { i64 }
%struct.timespec = type { i64, i64 }
%"class.boost::system::system_error" = type { %"class.std::runtime_error", %"class.boost::system::error_code" }
%"class.std::runtime_error" = type { %"class.std::exception", %"struct.std::__cow_string" }
%"class.std::exception" = type { ptr }
%"struct.std::__cow_string" = type { %union.anon.2 }
%union.anon.2 = type { ptr }
%"class.boost::system::error_code" = type { %union.anon.1, i64 }
%union.anon.1 = type { %"struct.boost::system::error_code::data" }
%"struct.boost::system::error_code::data" = type { i32, ptr }
%"class.boost::chrono::time_point.3" = type { %"class.boost::chrono::duration" }
%"class.boost::system::error_category" = type <{ ptr, i64, %union.anon.0, %"struct.std::atomic", [4 x i8] }>
%union.anon.0 = type { ptr, [24 x i8] }
%"struct.std::atomic" = type { %"struct.std::__atomic_base" }
%"struct.std::__atomic_base" = type { i32 }

@.str.1 = private unnamed_addr constant [21 x i8] c"chrono::steady_clock\00", align 1

; Function Attrs: mustprogress nounwind uwtable
define linkonce_odr hidden noundef i64 @_ZN5boost6chrono15duration_valuesIlE4zeroEv() #2 comdat align 2 {
  ret i64 0
}

; Function Attrs: noinline noreturn nounwind uwtable
define linkonce_odr hidden void @__clang_call_terminate(ptr noundef %0) #3 comdat {
  %2 = call ptr @__cxa_begin_catch(ptr %0) #19
  call void @_ZSt9terminatev() #20
  unreachable
}

; Function Attrs: inlinehint mustprogress nounwind uwtable
define linkonce_odr hidden noundef zeroext i1 @_ZN5boost6system6detail11failed_implEiRKNS0_14error_categoryE(i32 noundef %0, ptr noundef nonnull align 8 dereferenceable(52) %1) #1 comdat {
  %3 = alloca i1, align 1
  %4 = alloca i32, align 4
  %5 = alloca ptr, align 8
  store i32 %0, ptr %4, align 4, !tbaa !3
  store ptr %1, ptr %5, align 8, !tbaa !7
  %6 = load ptr, ptr %5, align 8, !tbaa !7
  %7 = getelementptr inbounds nuw %"class.boost::system::error_category", ptr %6, i32 0, i32 1
  %8 = load i64, ptr %7, align 8, !tbaa !37
  %9 = icmp eq i64 %8, -5572340897628102703
  br i1 %9, label %15, label %10

10:                                               ; preds = %2
  %11 = load ptr, ptr %5, align 8, !tbaa !7
  %12 = getelementptr inbounds nuw %"class.boost::system::error_category", ptr %11, i32 0, i32 1
  %13 = load i64, ptr %12, align 8, !tbaa !37
  %14 = icmp eq i64 %13, -5572340897628102704
  br i1 %14, label %15, label %18

15:                                               ; preds = %10, %2
  %16 = load i32, ptr %4, align 4, !tbaa !3
  %17 = icmp ne i32 %16, 0
  store i1 %17, ptr %3, align 1
  br label %25

18:                                               ; preds = %10
  %19 = load ptr, ptr %5, align 8, !tbaa !7
  %20 = load i32, ptr %4, align 4, !tbaa !3
  %21 = load ptr, ptr %19, align 8, !tbaa !14
  %22 = getelementptr inbounds ptr, ptr %21, i64 6
  %23 = load ptr, ptr %22, align 8
  %24 = call noundef zeroext i1 %23(ptr noundef nonnull align 8 dereferenceable(52) %19, i32 noundef %20) #19
  store i1 %24, ptr %3, align 1
  br label %25

25:                                               ; preds = %18, %15
  %26 = load i1, ptr %3, align 1
  ret i1 %26
}

; Function Attrs: inlinehint mustprogress nounwind uwtable
define linkonce_odr hidden noundef ptr @_ZN5boost6detail6throwsEv() #1 comdat {
  ret ptr inttoptr (i64 8 to ptr)
}

; Function Attrs: mustprogress nounwind uwtable
define linkonce_odr hidden void @_ZN5boost6system10error_codeC2Ev(ptr noundef nonnull align 8 dereferenceable(24) %0) unnamed_addr #2 comdat align 2 {
  %2 = alloca ptr, align 8
  store ptr %0, ptr %2, align 8, !tbaa !7
  %3 = load ptr, ptr %2, align 8
  %4 = getelementptr inbounds nuw %"class.boost::system::error_code", ptr %3, i32 0, i32 0
  call void @llvm.memset.p0.i64(ptr align 8 %4, i8 0, i64 16, i1 false)
  %5 = getelementptr inbounds nuw %"class.boost::system::error_code", ptr %3, i32 0, i32 1
  store i64 0, ptr %5, align 8, !tbaa !30
  ret void
}

; Function Attrs: mustprogress uwtable
define linkonce_odr hidden i64 @_ZN5boost6chrono8durationIlSt5ratioILl1ELl1000000000EEE4zeroEv() #5 comdat align 2 {
  %1 = alloca %"class.boost::chrono::duration", align 8
  %2 = alloca i64, align 8
  call void @llvm.lifetime.start.p0(i64 8, ptr %2) #19
  %3 = call noundef i64 @_ZN5boost6chrono15duration_valuesIlE4zeroEv()
  store i64 %3, ptr %2, align 8, !tbaa !20
  call void @_ZN5boost6chrono8durationIlSt5ratioILl1ELl1000000000EEEC2IlEERKT_PNS_9enable_ifINS_3mpl4and_INS_14is_convertibleIS6_lEENSA_3or_INS0_23treat_as_floating_pointIlEENSB_INSA_4not_ISG_EENSH_INSF_IS6_EEEEN4mpl_5bool_ILb1EEESN_SN_EENSM_ILb0EEESP_SP_EESN_SN_SN_EEvE4typeE(ptr noundef nonnull align 8 dereferenceable(8) %1, ptr noundef nonnull align 8 dereferenceable(8) %2, ptr noundef null)
  call void @llvm.lifetime.end.p0(i64 8, ptr %2) #19
  %4 = getelementptr inbounds nuw %"class.boost::chrono::duration", ptr %1, i32 0, i32 0
  %5 = load i64, ptr %4, align 8
  ret i64 %5
}

; Function Attrs: mustprogress nounwind uwtable
define linkonce_odr hidden void @_ZN5boost6system10error_codeC2EiRKNS0_14error_categoryE(ptr noundef nonnull align 8 dereferenceable(24) %0, i32 noundef %1, ptr noundef nonnull align 8 dereferenceable(52) %2) unnamed_addr #2 comdat align 2 personality ptr @__gxx_personality_v0 {
  %4 = alloca ptr, align 8
  %5 = alloca i32, align 4
  %6 = alloca ptr, align 8
  store ptr %0, ptr %4, align 8, !tbaa !7
  store i32 %1, ptr %5, align 4, !tbaa !3
  store ptr %2, ptr %6, align 8, !tbaa !7
  %7 = load ptr, ptr %4, align 8
  %8 = getelementptr inbounds nuw %"class.boost::system::error_code", ptr %7, i32 0, i32 0
  call void @llvm.memset.p0.i64(ptr align 8 %8, i8 0, i64 16, i1 false)
  %9 = getelementptr inbounds nuw %"class.boost::system::error_code", ptr %7, i32 0, i32 1
  %10 = load i32, ptr %5, align 4, !tbaa !3
  %11 = load ptr, ptr %6, align 8, !tbaa !7
  %12 = invoke noundef zeroext i1 @_ZN5boost6system6detail11failed_implEiRKNS0_14error_categoryE(i32 noundef %10, ptr noundef nonnull align 8 dereferenceable(52) %11)
          to label %13 unwind label %23

13:                                               ; preds = %3
  %14 = zext i1 %12 to i32
  %15 = add nsw i32 2, %14
  %16 = sext i32 %15 to i64
  store i64 %16, ptr %9, align 8, !tbaa !30
  %17 = load i32, ptr %5, align 4, !tbaa !3
  %18 = getelementptr inbounds nuw %"class.boost::system::error_code", ptr %7, i32 0, i32 0
  %19 = getelementptr inbounds nuw %"struct.boost::system::error_code::data", ptr %18, i32 0, i32 0
  store i32 %17, ptr %19, align 8, !tbaa !25
  %20 = load ptr, ptr %6, align 8, !tbaa !7
  %21 = getelementptr inbounds nuw %"class.boost::system::error_code", ptr %7, i32 0, i32 0
  %22 = getelementptr inbounds nuw %"struct.boost::system::error_code::data", ptr %21, i32 0, i32 1
  store ptr %20, ptr %22, align 8, !tbaa !25
  ret void

23:                                               ; preds = %3
  %24 = landingpad { ptr, i32 }
          catch ptr null
  %25 = extractvalue { ptr, i32 } %24, 0
  call void @__clang_call_terminate(ptr %25) #20
  unreachable
}

; Function Attrs: inlinehint mustprogress uwtable
define linkonce_odr hidden noundef nonnull align 8 dereferenceable(24) ptr @_ZN5boost6throwsEv() #0 comdat {
  %1 = call noundef ptr @_ZN5boost6detail6throwsEv()
  ret ptr %1
}

; Function Attrs: alwaysinline mustprogress nounwind uwtable
define linkonce_odr hidden void @_ZN5boost6chrono10time_pointINS0_12steady_clockENS0_8durationIlSt5ratioILl1ELl1000000000EEEEEC2ERKS6_(ptr noundef nonnull align 8 dereferenceable(8) %0, ptr noundef nonnull align 8 dereferenceable(8) %1) unnamed_addr #7 comdat align 2 {
  %3 = alloca ptr, align 8
  %4 = alloca ptr, align 8
  store ptr %0, ptr %3, align 8, !tbaa !7
  store ptr %1, ptr %4, align 8, !tbaa !7
  %5 = load ptr, ptr %3, align 8
  %6 = getelementptr inbounds nuw %"class.boost::chrono::time_point.3", ptr %5, i32 0, i32 0
  %7 = load ptr, ptr %4, align 8, !tbaa !7
  call void @llvm.memcpy.p0.p0.i64(ptr align 8 %6, ptr align 8 %7, i64 8, i1 false), !tbaa.struct !23
  ret void
}

; Function Attrs: alwaysinline mustprogress nounwind uwtable
define linkonce_odr hidden void @_ZN5boost6chrono8durationIlSt5ratioILl1ELl1000000000EEEC2IlEERKT_PNS_9enable_ifINS_3mpl4and_INS_14is_convertibleIS6_lEENSA_3or_INS0_23treat_as_floating_pointIlEENSB_INSA_4not_ISG_EENSH_INSF_IS6_EEEEN4mpl_5bool_ILb1EEESN_SN_EENSM_ILb0EEESP_SP_EESN_SN_SN_EEvE4typeE(ptr noundef nonnull align 8 dereferenceable(8) %0, ptr noundef nonnull align 8 dereferenceable(8) %1, ptr noundef %2) unnamed_addr #7 comdat align 2 {
  %4 = alloca ptr, align 8
  %5 = alloca ptr, align 8
  %6 = alloca ptr, align 8
  store ptr %0, ptr %4, align 8, !tbaa !7
  store ptr %1, ptr %5, align 8, !tbaa !7
  store ptr %2, ptr %6, align 8, !tbaa !7
  %7 = load ptr, ptr %4, align 8
  %8 = getelementptr inbounds nuw %"class.boost::chrono::duration", ptr %7, i32 0, i32 0
  %9 = load ptr, ptr %5, align 8, !tbaa !7
  %10 = load i64, ptr %9, align 8, !tbaa !20
  store i64 %10, ptr %8, align 8, !tbaa !21
  ret void
}

; Function Attrs: mustprogress nounwind uwtable
define linkonce_odr hidden void @_ZN5boost6system10error_code5clearEv(ptr noundef nonnull align 8 dereferenceable(24) %0) #2 comdat align 2 {
  %2 = alloca ptr, align 8
  %3 = alloca %"class.boost::system::error_code", align 8
  store ptr %0, ptr %2, align 8, !tbaa !7
  %4 = load ptr, ptr %2, align 8
  call void @llvm.lifetime.start.p0(i64 24, ptr %3) #19
  call void @_ZN5boost6system10error_codeC2Ev(ptr noundef nonnull align 8 dereferenceable(24) %3) #19
  call void @llvm.memcpy.p0.p0.i64(ptr align 8 %4, ptr align 8 %3, i64 24, i1 false), !tbaa.struct !24
  call void @llvm.lifetime.end.p0(i64 24, ptr %3) #19
  ret void
}

; Function Attrs: alwaysinline mustprogress uwtable
define linkonce_odr hidden void @_ZN5boost6chrono10time_pointINS0_12steady_clockENS0_8durationIlSt5ratioILl1ELl1000000000EEEEEC2Ev(ptr noundef nonnull align 8 dereferenceable(8) %0) unnamed_addr #10 comdat align 2 {
  %2 = alloca ptr, align 8
  store ptr %0, ptr %2, align 8, !tbaa !7
  %3 = load ptr, ptr %2, align 8
  %4 = getelementptr inbounds nuw %"class.boost::chrono::time_point.3", ptr %3, i32 0, i32 0
  %5 = call i64 @_ZN5boost6chrono8durationIlSt5ratioILl1ELl1000000000EEE4zeroEv()
  %6 = getelementptr inbounds nuw %"class.boost::chrono::duration", ptr %4, i32 0, i32 0
  store i64 %5, ptr %6, align 8
  ret void
}

; Function Attrs: mustprogress nounwind uwtable
define linkonce_odr hidden void @_ZN5boost6system10error_code6assignEiRKNS0_14error_categoryE(ptr noundef nonnull align 8 dereferenceable(24) %0, i32 noundef %1, ptr noundef nonnull align 8 dereferenceable(52) %2) #2 comdat align 2 {
  %4 = alloca ptr, align 8
  %5 = alloca i32, align 4
  %6 = alloca ptr, align 8
  %7 = alloca %"class.boost::system::error_code", align 8
  store ptr %0, ptr %4, align 8, !tbaa !7
  store i32 %1, ptr %5, align 4, !tbaa !3
  store ptr %2, ptr %6, align 8, !tbaa !7
  %8 = load ptr, ptr %4, align 8
  call void @llvm.lifetime.start.p0(i64 24, ptr %7) #19
  %9 = load i32, ptr %5, align 4, !tbaa !3
  %10 = load ptr, ptr %6, align 8, !tbaa !7
  call void @_ZN5boost6system10error_codeC2EiRKNS0_14error_categoryE(ptr noundef nonnull align 8 dereferenceable(24) %7, i32 noundef %9, ptr noundef nonnull align 8 dereferenceable(52) %10) #19
  call void @llvm.memcpy.p0.p0.i64(ptr align 8 %8, ptr align 8 %7, i64 24, i1 false), !tbaa.struct !24
  call void @llvm.lifetime.end.p0(i64 24, ptr %7) #19
  ret void
}

; Function Attrs: mustprogress nounwind uwtable
define linkonce_odr hidden noundef nonnull align 8 dereferenceable(52) ptr @_ZN5boost6system15system_categoryEv() #2 comdat {
  ret ptr @_ZN5boost6system6detail17system_cat_holderIvE8instanceE
}

; Function Attrs: inlinehint mustprogress uwtable
define linkonce_odr hidden noundef zeroext i1 @_ZN5boost6chrono9is_throwsERNS_6system10error_codeE(ptr noundef nonnull align 8 dereferenceable(24) %0) #0 comdat {
  %2 = alloca ptr, align 8
  store ptr %0, ptr %2, align 8, !tbaa !7
  %3 = load ptr, ptr %2, align 8, !tbaa !7
  %4 = call noundef nonnull align 8 dereferenceable(24) ptr @_ZN5boost6throwsEv()
  %5 = icmp eq ptr %3, %4
  ret i1 %5
}

; Function Attrs: mustprogress uwtable
define i64 @_ZN5boost6chrono12steady_clock3nowERNS_6system10error_codeE(ptr noundef nonnull align 8 dereferenceable(24) %0) #5 align 2 personality ptr @__gxx_personality_v0 {
  %2 = alloca %"class.boost::chrono::time_point.3", align 8
  %3 = alloca ptr, align 8
  %4 = alloca %struct.timespec, align 8
  %5 = alloca %"class.boost::system::system_error", align 8
  %6 = alloca ptr, align 8
  %7 = alloca i32, align 4
  %8 = alloca i32, align 4
  %9 = alloca %"class.boost::chrono::duration", align 8
  %10 = alloca i64, align 8
  store ptr %0, ptr %3, align 8, !tbaa !7
  call void @llvm.lifetime.start.p0(i64 16, ptr %4) #19
  %11 = call i32 @clock_gettime(i32 noundef 1, ptr noundef %4) #19
  %12 = icmp ne i32 %11, 0
  br i1 %12, label %13, label %30

13:                                               ; preds = %1
  %14 = load ptr, ptr %3, align 8, !tbaa !7
  %15 = call noundef zeroext i1 @_ZN5boost6chrono9is_throwsERNS_6system10error_codeE(ptr noundef nonnull align 8 dereferenceable(24) %14)
  br i1 %15, label %16, label %25

16:                                               ; preds = %13
  call void @llvm.lifetime.start.p0(i64 40, ptr %5) #19
  %17 = call ptr @__errno_location() #22
  %18 = load i32, ptr %17, align 4, !tbaa !3
  %19 = call noundef nonnull align 8 dereferenceable(52) ptr @_ZN5boost6system15system_categoryEv() #19
  call void @_ZN5boost6system12system_errorC2EiRKNS0_14error_categoryEPKc(ptr noundef nonnull align 8 dereferenceable(40) %5, i32 noundef %18, ptr noundef nonnull align 8 dereferenceable(52) %19, ptr noundef @.str.1)
  invoke void @_ZN5boost15throw_exceptionINS_6system12system_errorEEEvRKT_(ptr noundef nonnull align 8 dereferenceable(40) %5) #21
          to label %20 unwind label %21

20:                                               ; preds = %16
  unreachable

21:                                               ; preds = %16
  %22 = landingpad { ptr, i32 }
          cleanup
  %23 = extractvalue { ptr, i32 } %22, 0
  store ptr %23, ptr %6, align 8
  %24 = extractvalue { ptr, i32 } %22, 1
  store i32 %24, ptr %7, align 4
  call void @_ZNSt13runtime_errorD2Ev(ptr noundef nonnull align 8 dereferenceable(40) %5) #19
  call void @llvm.lifetime.end.p0(i64 40, ptr %5) #19
  call void @llvm.lifetime.end.p0(i64 16, ptr %4) #19
  br label %46

25:                                               ; preds = %13
  %26 = load ptr, ptr %3, align 8, !tbaa !7
  %27 = call ptr @__errno_location() #22
  %28 = load i32, ptr %27, align 4, !tbaa !3
  %29 = call noundef nonnull align 8 dereferenceable(52) ptr @_ZN5boost6system15system_categoryEv() #19
  call void @_ZN5boost6system10error_code6assignEiRKNS0_14error_categoryE(ptr noundef nonnull align 8 dereferenceable(24) %26, i32 noundef %28, ptr noundef nonnull align 8 dereferenceable(52) %29) #19
  call void @_ZN5boost6chrono10time_pointINS0_12steady_clockENS0_8durationIlSt5ratioILl1ELl1000000000EEEEEC2Ev(ptr noundef nonnull align 8 dereferenceable(8) %2)
  store i32 1, ptr %8, align 4
  br label %42

30:                                               ; preds = %1
  %31 = load ptr, ptr %3, align 8, !tbaa !7
  %32 = call noundef zeroext i1 @_ZN5boost6chrono9is_throwsERNS_6system10error_codeE(ptr noundef nonnull align 8 dereferenceable(24) %31)
  br i1 %32, label %35, label %33

33:                                               ; preds = %30
  %34 = load ptr, ptr %3, align 8, !tbaa !7
  call void @_ZN5boost6system10error_code5clearEv(ptr noundef nonnull align 8 dereferenceable(24) %34) #19
  br label %35

35:                                               ; preds = %33, %30
  call void @llvm.lifetime.start.p0(i64 8, ptr %9) #19
  call void @llvm.lifetime.start.p0(i64 8, ptr %10) #19
  %36 = getelementptr inbounds nuw %struct.timespec, ptr %4, i32 0, i32 0
  %37 = load i64, ptr %36, align 8, !tbaa !16
  %38 = mul nsw i64 %37, 1000000000
  %39 = getelementptr inbounds nuw %struct.timespec, ptr %4, i32 0, i32 1
  %40 = load i64, ptr %39, align 8, !tbaa !19
  %41 = add nsw i64 %38, %40
  store i64 %41, ptr %10, align 8, !tbaa !20
  call void @_ZN5boost6chrono8durationIlSt5ratioILl1ELl1000000000EEEC2IlEERKT_PNS_9enable_ifINS_3mpl4and_INS_14is_convertibleIS6_lEENSA_3or_INS0_23treat_as_floating_pointIlEENSB_INSA_4not_ISG_EENSH_INSF_IS6_EEEEN4mpl_5bool_ILb1EEESN_SN_EENSM_ILb0EEESP_SP_EESN_SN_SN_EEvE4typeE(ptr noundef nonnull align 8 dereferenceable(8) %9, ptr noundef nonnull align 8 dereferenceable(8) %10, ptr noundef null)
  call void @_ZN5boost6chrono10time_pointINS0_12steady_clockENS0_8durationIlSt5ratioILl1ELl1000000000EEEEEC2ERKS6_(ptr noundef nonnull align 8 dereferenceable(8) %2, ptr noundef nonnull align 8 dereferenceable(8) %9)
  call void @llvm.lifetime.end.p0(i64 8, ptr %10) #19
  call void @llvm.lifetime.end.p0(i64 8, ptr %9) #19
  store i32 1, ptr %8, align 4
  br label %42

42:                                               ; preds = %35, %25
  call void @llvm.lifetime.end.p0(i64 16, ptr %4) #19
  %43 = getelementptr inbounds nuw %"class.boost::chrono::time_point.3", ptr %2, i32 0, i32 0
  %44 = getelementptr inbounds nuw %"class.boost::chrono::duration", ptr %43, i32 0, i32 0
  %45 = load i64, ptr %44, align 8
  ret i64 %45

46:                                               ; preds = %21
  %47 = load ptr, ptr %6, align 8
  %48 = load i32, ptr %7, align 4
  %49 = insertvalue { ptr, i32 } poison, ptr %47, 0
  %50 = insertvalue { ptr, i32 } %49, i32 %48, 1
  resume { ptr, i32 } %50
}