; Function Attrs: mustprogress uwtable
define i64 @_ZN5boost6chrono12steady_clock3nowERNS_6system10error_codeE(ptr noundef nonnull writeonly align 8 dereferenceable(24) %0) local_unnamed_addr #6 align 2 personality ptr @__gxx_personality_v0 {
  %2 = alloca %struct.timespec, align 8
  %3 = alloca %"class.boost::system::system_error", align 8
  call void @llvm.lifetime.start.p0(i64 16, ptr nonnull %2) #25
  %4 = call i32 @clock_gettime(i32 noundef 1, ptr noundef nonnull %2) #25
  %.not = icmp eq i32 %4, 0
  %5 = icmp eq ptr %0, inttoptr (i64 8 to ptr)
  br i1 %.not, label %26, label %6

6:                                                ; preds = %1
  br i1 %5, label %7, label %13

7:                                                ; preds = %6
  call void @llvm.lifetime.start.p0(i64 40, ptr nonnull %3) #25
  %8 = tail call ptr @__errno_location() #27
  %9 = load i32, ptr %8, align 4, !tbaa !9
  call void @_ZN5boost6system12system_errorC2EiRKNS0_14error_categoryEPKc(ptr noundef nonnull align 8 dereferenceable(40) %3, i32 noundef %9, ptr noundef nonnull align 8 dereferenceable(52) @_ZN5boost6system6detail17system_cat_holderIvE8instanceE, ptr noundef nonnull @.str.1)
  invoke void @_ZN5boost15throw_exceptionINS_6system12system_errorEEEvRKT_(ptr noundef nonnull align 8 dereferenceable(40) %3) #28
          to label %10 unwind label %11

10:                                               ; preds = %7
  unreachable

11:                                               ; preds = %7
  %12 = landingpad { ptr, i32 }
          cleanup
  call void @_ZNSt13runtime_errorD2Ev(ptr noundef nonnull align 8 dereferenceable(40) %3) #25
  call void @llvm.lifetime.end.p0(i64 40, ptr nonnull %3) #25
  call void @llvm.lifetime.end.p0(i64 16, ptr nonnull %2) #25
  resume { ptr, i32 } %12

13:                                               ; preds = %6
  %14 = tail call ptr @__errno_location() #27
  %15 = load i32, ptr %14, align 4, !tbaa !9
  %16 = load i64, ptr getelementptr inbounds nuw (i8, ptr @_ZN5boost6system6detail17system_cat_holderIvE8instanceE, i64 8), align 8, !tbaa !11
  %17 = and i64 %16, -2
  %switch.i.i.i = icmp eq i64 %17, -5572340897628102704
  br i1 %switch.i.i.i, label %18, label %20

18:                                               ; preds = %13
  %19 = icmp ne i32 %15, 0
  br label %_ZN5boost6system10error_code6assignEiRKNS0_14error_categoryE.exit

20:                                               ; preds = %13
  %21 = load ptr, ptr @_ZN5boost6system6detail17system_cat_holderIvE8instanceE, align 8, !tbaa !16
  %22 = getelementptr inbounds i8, ptr %21, i64 48
  %23 = load ptr, ptr %22, align 8
  %24 = call noundef zeroext i1 %23(ptr noundef nonnull align 8 dereferenceable(52) @_ZN5boost6system6detail17system_cat_holderIvE8instanceE, i32 noundef %15) #25
  br label %_ZN5boost6system10error_code6assignEiRKNS0_14error_categoryE.exit

_ZN5boost6system10error_code6assignEiRKNS0_14error_categoryE.exit: ; preds = %18, %20
  %.0.i.i.i = phi i1 [ %19, %18 ], [ %24, %20 ]
  %25 = select i1 %.0.i.i.i, i64 3, i64 2
  store i32 %15, ptr %0, align 8
  %.sroa.5.0..sroa_idx.i = getelementptr inbounds i8, ptr %0, i64 4
  store i32 0, ptr %.sroa.5.0..sroa_idx.i, align 4
  %.sroa.52.0..sroa_idx.i = getelementptr inbounds i8, ptr %0, i64 8
  store ptr @_ZN5boost6system6detail17system_cat_holderIvE8instanceE, ptr %.sroa.52.0..sroa_idx.i, align 8, !tbaa !18
  %.sroa.6.0..sroa_idx.i = getelementptr inbounds i8, ptr %0, i64 16
  store i64 %25, ptr %.sroa.6.0..sroa_idx.i, align 8, !tbaa !19
  br label %34

26:                                               ; preds = %1
  br i1 %5, label %28, label %27

27:                                               ; preds = %26
  call void @llvm.memset.p0.i64(ptr noundef nonnull align 8 dereferenceable(24) %0, i8 0, i64 24, i1 false)
  br label %28

28:                                               ; preds = %27, %26
  %29 = load i64, ptr %2, align 8, !tbaa !3
  %30 = mul nsw i64 %29, 1000000000
  %31 = getelementptr inbounds nuw i8, ptr %2, i64 8
  %32 = load i64, ptr %31, align 8, !tbaa !8
  %33 = add nsw i64 %30, %32
  br label %34

34:                                               ; preds = %28, %_ZN5boost6system10error_code6assignEiRKNS0_14error_categoryE.exit
  %.sroa.05.0 = phi i64 [ %33, %28 ], [ 0, %_ZN5boost6system10error_code6assignEiRKNS0_14error_categoryE.exit ]
  call void @llvm.lifetime.end.p0(i64 16, ptr nonnull %2) #25
  ret i64 %.sroa.05.0
}